target datalayout = "e-m:e-p270:32:32-p271:32:32-p272:64:64-i64:64-i128:128-f80:128-n8:16:32:64-S128"
target triple = "x86_64-pc-linux-gnu"

%struct.PKCS12_st = type { ptr, ptr, ptr }
%struct.PKCS12_MAC_DATA_st = type { ptr, ptr, ptr }
%struct.X509_algor_st = type { ptr, ptr }
%struct.PBMAC1PARAM = type { ptr, ptr }

@.str = private unnamed_addr constant [36 x i8] c"../openssl/crypto/pkcs12/p12_mutl.c\00", align 1
@__func__.PKCS12_verify_mac = private unnamed_addr constant [18 x i8] c"PKCS12_verify_mac\00", align 1

; Function Attrs: nounwind uwtable
define i32 @PKCS12_verify_mac(ptr noundef %0, ptr noundef %1, i32 noundef %2) #0 {
  %4 = alloca i32, align 4
  %5 = alloca ptr, align 8
  %6 = alloca ptr, align 8
  %7 = alloca i32, align 4
  %8 = alloca [64 x i8], align 16
  %9 = alloca i32, align 4
  %10 = alloca ptr, align 8
  %11 = alloca ptr, align 8
  %12 = alloca ptr, align 8
  %13 = alloca i32, align 4
  %14 = alloca ptr, align 8
  %15 = alloca ptr, align 8
  %16 = alloca i32, align 4
  store ptr %0, ptr %5, align 8, !tbaa !3
  store ptr %1, ptr %6, align 8, !tbaa !35
  store i32 %2, ptr %7, align 4, !tbaa !37
  call void @llvm.lifetime.start.p0(i64 64, ptr %8) #4
  call void @llvm.lifetime.start.p0(i64 4, ptr %9) #4
  call void @llvm.lifetime.start.p0(i64 8, ptr %10) #4
  call void @llvm.lifetime.start.p0(i64 8, ptr %11) #4
  call void @llvm.lifetime.start.p0(i64 8, ptr %12) #4
  %17 = load ptr, ptr %5, align 8, !tbaa !3
  %18 = getelementptr inbounds nuw %struct.PKCS12_st, ptr %17, i32 0, i32 1
  %19 = load ptr, ptr %18, align 8, !tbaa !8
  %20 = icmp eq ptr %19, null
  br i1 %20, label %21, label %22

21:                                               ; preds = %3
  call void @ERR_new()
  call void @ERR_set_debug(ptr noundef @.str, i32 noundef 304, ptr noundef @__func__.PKCS12_verify_mac)
  call void (i32, i32, ptr, ...) @ERR_set_error(i32 noundef 35, i32 noundef 108, ptr noundef null)
  store i32 0, ptr %4, align 4
  store i32 1, ptr %13, align 4
  br label %91

22:                                               ; preds = %3
  %23 = load ptr, ptr %5, align 8, !tbaa !3
  %24 = getelementptr inbounds nuw %struct.PKCS12_st, ptr %23, i32 0, i32 1
  %25 = load ptr, ptr %24, align 8, !tbaa !8
  %26 = getelementptr inbounds nuw %struct.PKCS12_MAC_DATA_st, ptr %25, i32 0, i32 0
  %27 = load ptr, ptr %26, align 8, !tbaa !17
  call void @X509_SIG_get0(ptr noundef %27, ptr noundef %11, ptr noundef null)
  %28 = load ptr, ptr %11, align 8, !tbaa !23
  call void @X509_ALGOR_get0(ptr noundef %12, ptr noundef null, ptr noundef null, ptr noundef %28)
  %29 = load ptr, ptr %12, align 8, !tbaa !34
  %30 = call i32 @OBJ_obj2nid(ptr noundef %29)
  %31 = icmp eq i32 %30, 162
  br i1 %31, label %32, label %62

32:                                               ; preds = %22
  call void @llvm.lifetime.start.p0(i64 8, ptr %14) #4
  store ptr null, ptr %14, align 8, !tbaa !25
  call void @llvm.lifetime.start.p0(i64 8, ptr %15) #4
  call void @llvm.lifetime.start.p0(i64 4, ptr %16) #4
  store i32 0, ptr %16, align 4, !tbaa !37
  %33 = call ptr @PBMAC1PARAM_it()
  %34 = load ptr, ptr %11, align 8, !tbaa !23
  %35 = getelementptr inbounds nuw %struct.X509_algor_st, ptr %34, i32 0, i32 1
  %36 = load ptr, ptr %35, align 8, !tbaa !28
  %37 = call ptr @ASN1_TYPE_unpack_sequence(ptr noundef %33, ptr noundef %36)
  store ptr %37, ptr %14, align 8, !tbaa !25
  %38 = load ptr, ptr %14, align 8, !tbaa !25
  %39 = icmp eq ptr %38, null
  br i1 %39, label %40, label %41

40:                                               ; preds = %32
  call void @ERR_new()
  call void @ERR_set_debug(ptr noundef @.str, i32 noundef 317, ptr noundef @__func__.PKCS12_verify_mac)
  call void (i32, i32, ptr, ...) @ERR_set_error(i32 noundef 35, i32 noundef 524556, ptr noundef null)
  store i32 0, ptr %4, align 4
  store i32 1, ptr %13, align 4
  br label %59

41:                                               ; preds = %32
  %42 = load ptr, ptr %14, align 8, !tbaa !25
  %43 = getelementptr inbounds nuw %struct.PBMAC1PARAM, ptr %42, i32 0, i32 1
  %44 = load ptr, ptr %43, align 8, !tbaa !57
  call void @X509_ALGOR_get0(ptr noundef %15, ptr noundef null, ptr noundef null, ptr noundef %44)
  %45 = load ptr, ptr %15, align 8, !tbaa !34
  %46 = call i32 @OBJ_obj2nid(ptr noundef %45)
  %47 = call i32 @ossl_hmac2mdnid(i32 noundef %46)
  store i32 %47, ptr %16, align 4, !tbaa !37
  %48 = load ptr, ptr %5, align 8, !tbaa !3
  %49 = load ptr, ptr %6, align 8, !tbaa !35
  %50 = load i32, ptr %7, align 4, !tbaa !37
  %51 = getelementptr inbounds [64 x i8], ptr %8, i64 0, i64 0
  %52 = load i32, ptr %16, align 4, !tbaa !37
  %53 = call i32 @pkcs12_gen_mac(ptr noundef %48, ptr noundef %49, i32 noundef %50, ptr noundef %51, ptr noundef %9, i32 noundef %52, i32 noundef 0, ptr noundef null)
  %54 = icmp ne i32 %53, 0
  br i1 %54, label %57, label %55

55:                                               ; preds = %41
  call void @ERR_new()
  call void @ERR_set_debug(ptr noundef @.str, i32 noundef 324, ptr noundef @__func__.PKCS12_verify_mac)
  call void (i32, i32, ptr, ...) @ERR_set_error(i32 noundef 35, i32 noundef 109, ptr noundef null)
  %56 = load ptr, ptr %14, align 8, !tbaa !25
  call void @PBMAC1PARAM_free(ptr noundef %56)
  store i32 0, ptr %4, align 4
  store i32 1, ptr %13, align 4
  br label %59

57:                                               ; preds = %41
  %58 = load ptr, ptr %14, align 8, !tbaa !25
  call void @PBMAC1PARAM_free(ptr noundef %58)
  store i32 0, ptr %13, align 4
  br label %59

59:                                               ; preds = %57, %55, %40
  call void @llvm.lifetime.end.p0(i64 4, ptr %16) #4
  call void @llvm.lifetime.end.p0(i64 8, ptr %15) #4
  call void @llvm.lifetime.end.p0(i64 8, ptr %14) #4
  %60 = load i32, ptr %13, align 4
  switch i32 %60, label %91 [
    i32 0, label %61
  ]

61:                                               ; preds = %59
  br label %71

62:                                               ; preds = %22
  %63 = load ptr, ptr %5, align 8, !tbaa !3
  %64 = load ptr, ptr %6, align 8, !tbaa !35
  %65 = load i32, ptr %7, align 4, !tbaa !37
  %66 = getelementptr inbounds [64 x i8], ptr %8, i64 0, i64 0
  %67 = call i32 @pkcs12_gen_mac(ptr noundef %63, ptr noundef %64, i32 noundef %65, ptr noundef %66, ptr noundef %9, i32 noundef 0, i32 noundef 0, ptr noundef null)
  %68 = icmp ne i32 %67, 0
  br i1 %68, label %70, label %69

69:                                               ; preds = %62
  call void @ERR_new()
  call void @ERR_set_debug(ptr noundef @.str, i32 noundef 331, ptr noundef @__func__.PKCS12_verify_mac)
  call void (i32, i32, ptr, ...) @ERR_set_error(i32 noundef 35, i32 noundef 109, ptr noundef null)
  store i32 0, ptr %4, align 4
  store i32 1, ptr %13, align 4
  br label %91

70:                                               ; preds = %62
  br label %71

71:                                               ; preds = %70, %61
  %72 = load ptr, ptr %5, align 8, !tbaa !3
  %73 = getelementptr inbounds nuw %struct.PKCS12_st, ptr %72, i32 0, i32 1
  %74 = load ptr, ptr %73, align 8, !tbaa !8
  %75 = getelementptr inbounds nuw %struct.PKCS12_MAC_DATA_st, ptr %74, i32 0, i32 0
  %76 = load ptr, ptr %75, align 8, !tbaa !17
  call void @X509_SIG_get0(ptr noundef %76, ptr noundef null, ptr noundef %10)
  %77 = load i32, ptr %9, align 4, !tbaa !37
  %78 = load ptr, ptr %10, align 8, !tbaa !21
  %79 = call i32 @ASN1_STRING_length(ptr noundef %78)
  %80 = icmp ne i32 %77, %79
  br i1 %80, label %89, label %81

81:                                               ; preds = %71
  %82 = getelementptr inbounds [64 x i8], ptr %8, i64 0, i64 0
  %83 = load ptr, ptr %10, align 8, !tbaa !21
  %84 = call ptr @ASN1_STRING_get0_data(ptr noundef %83)
  %85 = load i32, ptr %9, align 4, !tbaa !37
  %86 = zext i32 %85 to i64
  %87 = call i32 @CRYPTO_memcmp(ptr noundef %82, ptr noundef %84, i64 noundef %86)
  %88 = icmp ne i32 %87, 0
  br i1 %88, label %89, label %90

89:                                               ; preds = %81, %71
  store i32 0, ptr %4, align 4
  store i32 1, ptr %13, align 4
  br label %91

90:                                               ; preds = %81
  store i32 1, ptr %4, align 4
  store i32 1, ptr %13, align 4
  br label %91

91:                                               ; preds = %90, %89, %69, %59, %21
  call void @llvm.lifetime.end.p0(i64 8, ptr %12) #4
  call void @llvm.lifetime.end.p0(i64 8, ptr %11) #4
  call void @llvm.lifetime.end.p0(i64 8, ptr %10) #4
  call void @llvm.lifetime.end.p0(i64 4, ptr %9) #4
  call void @llvm.lifetime.end.p0(i64 64, ptr %8) #4
  %92 = load i32, ptr %4, align 4
  ret i32 %92
}