; Function Attrs: nounwind uwtable
define range(i32 0, 2) i32 @PKCS12_verify_mac(ptr noundef readonly captures(none) %0, ptr noundef %1, i32 noundef %2) local_unnamed_addr #1 {
  %4 = alloca [64 x i8], align 16
  %5 = alloca i32, align 4
  %6 = alloca ptr, align 8
  %7 = alloca ptr, align 8
  %8 = alloca ptr, align 8
  %9 = alloca ptr, align 8
  call void @llvm.lifetime.start.p0(i64 64, ptr nonnull %4) #5
  call void @llvm.lifetime.start.p0(i64 4, ptr nonnull %5) #5
  call void @llvm.lifetime.start.p0(i64 8, ptr nonnull %6) #5
  call void @llvm.lifetime.start.p0(i64 8, ptr nonnull %7) #5
  call void @llvm.lifetime.start.p0(i64 8, ptr nonnull %8) #5
  %10 = getelementptr inbounds nuw i8, ptr %0, i64 8
  %11 = load ptr, ptr %10, align 8, !tbaa !3
  %12 = icmp eq ptr %11, null
  br i1 %12, label %13, label %14

13:                                               ; preds = %3
  tail call void @ERR_new() #5
  tail call void @ERR_set_debug(ptr noundef nonnull @.str, i32 noundef 304, ptr noundef nonnull @__func__.PKCS12_verify_mac) #5
  tail call void (i32, i32, ptr, ...) @ERR_set_error(i32 noundef 35, i32 noundef 108, ptr noundef null) #5
  br label %52

14:                                               ; preds = %3
  %15 = load ptr, ptr %11, align 8, !tbaa !11
  call void @X509_SIG_get0(ptr noundef %15, ptr noundef nonnull %7, ptr noundef null) #5
  %16 = load ptr, ptr %7, align 8, !tbaa !17
  call void @X509_ALGOR_get0(ptr noundef nonnull %8, ptr noundef null, ptr noundef null, ptr noundef %16) #5
  %17 = load ptr, ptr %8, align 8, !tbaa !25
  %18 = call i32 @OBJ_obj2nid(ptr noundef %17) #5
  %19 = icmp eq i32 %18, 162
  br i1 %19, label %20, label %37

20:                                               ; preds = %14
  call void @llvm.lifetime.start.p0(i64 8, ptr nonnull %9) #5
  %21 = call ptr @PBMAC1PARAM_it() #5
  %22 = load ptr, ptr %7, align 8, !tbaa !17
  %23 = getelementptr inbounds nuw i8, ptr %22, i64 8
  %24 = load ptr, ptr %23, align 8, !tbaa !19
  %25 = call ptr @ASN1_TYPE_unpack_sequence(ptr noundef %21, ptr noundef %24) #5
  %26 = icmp eq ptr %25, null
  br i1 %26, label %27, label %28

27:                                               ; preds = %20
  call void @ERR_new() #5
  call void @ERR_set_debug(ptr noundef nonnull @.str, i32 noundef 317, ptr noundef nonnull @__func__.PKCS12_verify_mac) #5
  call void (i32, i32, ptr, ...) @ERR_set_error(i32 noundef 35, i32 noundef 524556, ptr noundef null) #5
  br label %.critedge

28:                                               ; preds = %20
  %29 = getelementptr inbounds nuw i8, ptr %25, i64 8
  %30 = load ptr, ptr %29, align 8, !tbaa !46
  call void @X509_ALGOR_get0(ptr noundef nonnull %9, ptr noundef null, ptr noundef null, ptr noundef %30) #5
  %31 = load ptr, ptr %9, align 8, !tbaa !25
  %32 = call i32 @OBJ_obj2nid(ptr noundef %31) #5
  %33 = call i32 @ossl_hmac2mdnid(i32 noundef %32) #5
  %34 = call fastcc i32 @pkcs12_gen_mac(ptr noundef nonnull %0, ptr noundef %1, i32 noundef %2, ptr noundef nonnull %4, ptr noundef nonnull %5, i32 noundef %33, i32 noundef 0, ptr noundef null)
  %.not18 = icmp eq i32 %34, 0
  br i1 %.not18, label %35, label %36

35:                                               ; preds = %28
  call void @ERR_new() #5
  call void @ERR_set_debug(ptr noundef nonnull @.str, i32 noundef 324, ptr noundef nonnull @__func__.PKCS12_verify_mac) #5
  call void (i32, i32, ptr, ...) @ERR_set_error(i32 noundef 35, i32 noundef 109, ptr noundef null) #5
  call void @PBMAC1PARAM_free(ptr noundef nonnull %25) #5
  br label %.critedge

36:                                               ; preds = %28
  call void @PBMAC1PARAM_free(ptr noundef nonnull %25) #5
  call void @llvm.lifetime.end.p0(i64 8, ptr nonnull %9) #5
  br label %40

37:                                               ; preds = %14
  %38 = call fastcc i32 @pkcs12_gen_mac(ptr noundef nonnull %0, ptr noundef %1, i32 noundef %2, ptr noundef nonnull %4, ptr noundef nonnull %5, i32 noundef 0, i32 noundef 0, ptr noundef null)
  %.not = icmp eq i32 %38, 0
  br i1 %.not, label %39, label %40

39:                                               ; preds = %37
  call void @ERR_new() #5
  call void @ERR_set_debug(ptr noundef nonnull @.str, i32 noundef 331, ptr noundef nonnull @__func__.PKCS12_verify_mac) #5
  call void (i32, i32, ptr, ...) @ERR_set_error(i32 noundef 35, i32 noundef 109, ptr noundef null) #5
  br label %52

40:                                               ; preds = %36, %37
  %41 = load ptr, ptr %10, align 8, !tbaa !3
  %42 = load ptr, ptr %41, align 8, !tbaa !11
  call void @X509_SIG_get0(ptr noundef %42, ptr noundef null, ptr noundef nonnull %6) #5
  %43 = load i32, ptr %5, align 4, !tbaa !47
  %44 = load ptr, ptr %6, align 8, !tbaa !15
  %45 = call i32 @ASN1_STRING_length(ptr noundef %44) #5
  %.not19 = icmp eq i32 %43, %45
  br i1 %.not19, label %46, label %52

46:                                               ; preds = %40
  %47 = load ptr, ptr %6, align 8, !tbaa !15
  %48 = call ptr @ASN1_STRING_get0_data(ptr noundef %47) #5
  %49 = load i32, ptr %5, align 4, !tbaa !47
  %50 = zext i32 %49 to i64
  %51 = call i32 @CRYPTO_memcmp(ptr noundef nonnull %4, ptr noundef %48, i64 noundef %50) #5
  %.not20 = icmp eq i32 %51, 0
  %spec.select = zext i1 %.not20 to i32
  br label %52

.critedge:                                        ; preds = %35, %27
  call void @llvm.lifetime.end.p0(i64 8, ptr nonnull %9) #5
  br label %52

52:                                               ; preds = %46, %40, %.critedge, %39, %13
  %.015 = phi i32 [ 0, %13 ], [ 0, %39 ], [ 0, %.critedge ], [ 0, %40 ], [ %spec.select, %46 ]
  call void @llvm.lifetime.end.p0(i64 8, ptr nonnull %8) #5
  call void @llvm.lifetime.end.p0(i64 8, ptr nonnull %7) #5
  call void @llvm.lifetime.end.p0(i64 8, ptr nonnull %6) #5
  call void @llvm.lifetime.end.p0(i64 4, ptr nonnull %5) #5
  call void @llvm.lifetime.end.p0(i64 64, ptr nonnull %4) #5
  ret i32 %.015
}